target datalayout = "e-m:e-p270:32:32-p271:32:32-p272:64:64-i64:64-i128:128-f80:128-n8:16:32:64-S128"
target triple = "x86_64-pc-linux-gnu"

@hf_zbee_zcl_press_meas_measured_value = internal global i32 0, align 4
@hf_zbee_zcl_press_meas_min_measured_value = internal global i32 0, align 4
@hf_zbee_zcl_press_meas_max_measured_value = internal global i32 0, align 4
@hf_zbee_zcl_press_meas_tolerance = internal global i32 0, align 4
@hf_zbee_zcl_press_meas_scaled_value = internal global i32 0, align 4
@hf_zbee_zcl_press_meas_min_scaled_value = internal global i32 0, align 4
@hf_zbee_zcl_press_meas_max_scaled_value = internal global i32 0, align 4
@hf_zbee_zcl_press_meas_scaled_tolerance = internal global i32 0, align 4
@hf_zbee_zcl_press_meas_scale = internal global i32 0, align 4

; Function Attrs: null_pointer_is_valid sspstrong uwtable
define internal void @dissect_zcl_press_meas_attr_data(ptr noundef %0, ptr noundef %1, ptr noundef %2, i16 noundef zeroext %3, i32 noundef %4, i1 noundef zeroext %5) #0 {
  %7 = alloca ptr, align 8
  %8 = alloca ptr, align 8
  %9 = alloca ptr, align 8
  %10 = alloca i16, align 2
  %11 = alloca i32, align 4
  %12 = alloca i8, align 1
  store ptr %0, ptr %7, align 8
  store ptr %1, ptr %8, align 8
  store ptr %2, ptr %9, align 8
  store i16 %3, ptr %10, align 2
  store i32 %4, ptr %11, align 4
  %13 = zext i1 %5 to i8
  store i8 %13, ptr %12, align 1
  %14 = load i16, ptr %10, align 2
  %15 = zext i16 %14 to i32
  switch i32 %15, label %106 [
    i32 0, label %16
    i32 1, label %26
    i32 2, label %36
    i32 3, label %46
    i32 16, label %56
    i32 17, label %66
    i32 18, label %76
    i32 19, label %86
    i32 20, label %96
  ]

16:                                               ; preds = %6
  %17 = load ptr, ptr %7, align 8
  %18 = load i32, ptr @hf_zbee_zcl_press_meas_measured_value, align 4
  %19 = load ptr, ptr %8, align 8
  %20 = load ptr, ptr %9, align 8
  %21 = load i32, ptr %20, align 4
  %22 = call ptr @proto_tree_add_item(ptr noundef %17, i32 noundef %18, ptr noundef %19, i32 noundef %21, i32 noundef 2, i32 noundef -2147483648)
  %23 = load ptr, ptr %9, align 8
  %24 = load i32, ptr %23, align 4
  %25 = add i32 %24, 2
  store i32 %25, ptr %23, align 4
  br label %113

26:                                               ; preds = %6
  %27 = load ptr, ptr %7, align 8
  %28 = load i32, ptr @hf_zbee_zcl_press_meas_min_measured_value, align 4
  %29 = load ptr, ptr %8, align 8
  %30 = load ptr, ptr %9, align 8
  %31 = load i32, ptr %30, align 4
  %32 = call ptr @proto_tree_add_item(ptr noundef %27, i32 noundef %28, ptr noundef %29, i32 noundef %31, i32 noundef 2, i32 noundef -2147483648)
  %33 = load ptr, ptr %9, align 8
  %34 = load i32, ptr %33, align 4
  %35 = add i32 %34, 2
  store i32 %35, ptr %33, align 4
  br label %113

36:                                               ; preds = %6
  %37 = load ptr, ptr %7, align 8
  %38 = load i32, ptr @hf_zbee_zcl_press_meas_max_measured_value, align 4
  %39 = load ptr, ptr %8, align 8
  %40 = load ptr, ptr %9, align 8
  %41 = load i32, ptr %40, align 4
  %42 = call ptr @proto_tree_add_item(ptr noundef %37, i32 noundef %38, ptr noundef %39, i32 noundef %41, i32 noundef 2, i32 noundef -2147483648)
  %43 = load ptr, ptr %9, align 8
  %44 = load i32, ptr %43, align 4
  %45 = add i32 %44, 2
  store i32 %45, ptr %43, align 4
  br label %113

46:                                               ; preds = %6
  %47 = load ptr, ptr %7, align 8
  %48 = load i32, ptr @hf_zbee_zcl_press_meas_tolerance, align 4
  %49 = load ptr, ptr %8, align 8
  %50 = load ptr, ptr %9, align 8
  %51 = load i32, ptr %50, align 4
  %52 = call ptr @proto_tree_add_item(ptr noundef %47, i32 noundef %48, ptr noundef %49, i32 noundef %51, i32 noundef 2, i32 noundef -2147483648)
  %53 = load ptr, ptr %9, align 8
  %54 = load i32, ptr %53, align 4
  %55 = add i32 %54, 2
  store i32 %55, ptr %53, align 4
  br label %113

56:                                               ; preds = %6
  %57 = load ptr, ptr %7, align 8
  %58 = load i32, ptr @hf_zbee_zcl_press_meas_scaled_value, align 4
  %59 = load ptr, ptr %8, align 8
  %60 = load ptr, ptr %9, align 8
  %61 = load i32, ptr %60, align 4
  %62 = call ptr @proto_tree_add_item(ptr noundef %57, i32 noundef %58, ptr noundef %59, i32 noundef %61, i32 noundef 2, i32 noundef -2147483648)
  %63 = load ptr, ptr %9, align 8
  %64 = load i32, ptr %63, align 4
  %65 = add i32 %64, 2
  store i32 %65, ptr %63, align 4
  br label %113

66:                                               ; preds = %6
  %67 = load ptr, ptr %7, align 8
  %68 = load i32, ptr @hf_zbee_zcl_press_meas_min_scaled_value, align 4
  %69 = load ptr, ptr %8, align 8
  %70 = load ptr, ptr %9, align 8
  %71 = load i32, ptr %70, align 4
  %72 = call ptr @proto_tree_add_item(ptr noundef %67, i32 noundef %68, ptr noundef %69, i32 noundef %71, i32 noundef 2, i32 noundef -2147483648)
  %73 = load ptr, ptr %9, align 8
  %74 = load i32, ptr %73, align 4
  %75 = add i32 %74, 2
  store i32 %75, ptr %73, align 4
  br label %113

76:                                               ; preds = %6
  %77 = load ptr, ptr %7, align 8
  %78 = load i32, ptr @hf_zbee_zcl_press_meas_max_scaled_value, align 4
  %79 = load ptr, ptr %8, align 8
  %80 = load ptr, ptr %9, align 8
  %81 = load i32, ptr %80, align 4
  %82 = call ptr @proto_tree_add_item(ptr noundef %77, i32 noundef %78, ptr noundef %79, i32 noundef %81, i32 noundef 2, i32 noundef -2147483648)
  %83 = load ptr, ptr %9, align 8
  %84 = load i32, ptr %83, align 4
  %85 = add i32 %84, 2
  store i32 %85, ptr %83, align 4
  br label %113

86:                                               ; preds = %6
  %87 = load ptr, ptr %7, align 8
  %88 = load i32, ptr @hf_zbee_zcl_press_meas_scaled_tolerance, align 4
  %89 = load ptr, ptr %8, align 8
  %90 = load ptr, ptr %9, align 8
  %91 = load i32, ptr %90, align 4
  %92 = call ptr @proto_tree_add_item(ptr noundef %87, i32 noundef %88, ptr noundef %89, i32 noundef %91, i32 noundef 2, i32 noundef -2147483648)
  %93 = load ptr, ptr %9, align 8
  %94 = load i32, ptr %93, align 4
  %95 = add i32 %94, 2
  store i32 %95, ptr %93, align 4
  br label %113

96:                                               ; preds = %6
  %97 = load ptr, ptr %7, align 8
  %98 = load i32, ptr @hf_zbee_zcl_press_meas_scale, align 4
  %99 = load ptr, ptr %8, align 8
  %100 = load ptr, ptr %9, align 8
  %101 = load i32, ptr %100, align 4
  %102 = call ptr @proto_tree_add_item(ptr noundef %97, i32 noundef %98, ptr noundef %99, i32 noundef %101, i32 noundef 1, i32 noundef -2147483648)
  %103 = load ptr, ptr %9, align 8
  %104 = load i32, ptr %103, align 4
  %105 = add i32 %104, 1
  store i32 %105, ptr %103, align 4
  br label %113

106:                                              ; preds = %6
  %107 = load ptr, ptr %8, align 8
  %108 = load ptr, ptr %7, align 8
  %109 = load ptr, ptr %9, align 8
  %110 = load i32, ptr %11, align 4
  %111 = load i8, ptr %12, align 1, !range !6, !noundef !7
  %112 = trunc i8 %111 to i1
  call void @dissect_zcl_attr_data(ptr noundef %107, ptr noundef %108, ptr noundef %109, i32 noundef %110, i1 noundef zeroext %112)
  br label %113

113:                                              ; preds = %106, %96, %86, %76, %66, %56, %46, %36, %26, %16
  ret void
}