; Function Attrs: null_pointer_is_valid sspstrong uwtable
define internal void @dissect_zcl_press_meas_attr_data(ptr noundef %0, ptr noundef %1, ptr noundef %2, i16 noundef zeroext %3, i32 noundef %4, i1 noundef zeroext %5) #0 {
  switch i16 %3, label %61 [
    i16 0, label %7
    i16 1, label %13
    i16 2, label %19
    i16 3, label %25
    i16 16, label %31
    i16 17, label %37
    i16 18, label %43
    i16 19, label %49
    i16 20, label %55
  ]

7:                                                ; preds = %6
  %8 = load i32, ptr @hf_zbee_zcl_press_meas_measured_value, align 4
  %9 = load i32, ptr %2, align 4
  %10 = tail call ptr @proto_tree_add_item(ptr noundef %0, i32 noundef %8, ptr noundef %1, i32 noundef %9, i32 noundef 2, i32 noundef -2147483648)
  %11 = load i32, ptr %2, align 4
  %12 = add i32 %11, 2
  store i32 %12, ptr %2, align 4
  br label %62

13:                                               ; preds = %6
  %14 = load i32, ptr @hf_zbee_zcl_press_meas_min_measured_value, align 4
  %15 = load i32, ptr %2, align 4
  %16 = tail call ptr @proto_tree_add_item(ptr noundef %0, i32 noundef %14, ptr noundef %1, i32 noundef %15, i32 noundef 2, i32 noundef -2147483648)
  %17 = load i32, ptr %2, align 4
  %18 = add i32 %17, 2
  store i32 %18, ptr %2, align 4
  br label %62

19:                                               ; preds = %6
  %20 = load i32, ptr @hf_zbee_zcl_press_meas_max_measured_value, align 4
  %21 = load i32, ptr %2, align 4
  %22 = tail call ptr @proto_tree_add_item(ptr noundef %0, i32 noundef %20, ptr noundef %1, i32 noundef %21, i32 noundef 2, i32 noundef -2147483648)
  %23 = load i32, ptr %2, align 4
  %24 = add i32 %23, 2
  store i32 %24, ptr %2, align 4
  br label %62

25:                                               ; preds = %6
  %26 = load i32, ptr @hf_zbee_zcl_press_meas_tolerance, align 4
  %27 = load i32, ptr %2, align 4
  %28 = tail call ptr @proto_tree_add_item(ptr noundef %0, i32 noundef %26, ptr noundef %1, i32 noundef %27, i32 noundef 2, i32 noundef -2147483648)
  %29 = load i32, ptr %2, align 4
  %30 = add i32 %29, 2
  store i32 %30, ptr %2, align 4
  br label %62

31:                                               ; preds = %6
  %32 = load i32, ptr @hf_zbee_zcl_press_meas_scaled_value, align 4
  %33 = load i32, ptr %2, align 4
  %34 = tail call ptr @proto_tree_add_item(ptr noundef %0, i32 noundef %32, ptr noundef %1, i32 noundef %33, i32 noundef 2, i32 noundef -2147483648)
  %35 = load i32, ptr %2, align 4
  %36 = add i32 %35, 2
  store i32 %36, ptr %2, align 4
  br label %62

37:                                               ; preds = %6
  %38 = load i32, ptr @hf_zbee_zcl_press_meas_min_scaled_value, align 4
  %39 = load i32, ptr %2, align 4
  %40 = tail call ptr @proto_tree_add_item(ptr noundef %0, i32 noundef %38, ptr noundef %1, i32 noundef %39, i32 noundef 2, i32 noundef -2147483648)
  %41 = load i32, ptr %2, align 4
  %42 = add i32 %41, 2
  store i32 %42, ptr %2, align 4
  br label %62

43:                                               ; preds = %6
  %44 = load i32, ptr @hf_zbee_zcl_press_meas_max_scaled_value, align 4
  %45 = load i32, ptr %2, align 4
  %46 = tail call ptr @proto_tree_add_item(ptr noundef %0, i32 noundef %44, ptr noundef %1, i32 noundef %45, i32 noundef 2, i32 noundef -2147483648)
  %47 = load i32, ptr %2, align 4
  %48 = add i32 %47, 2
  store i32 %48, ptr %2, align 4
  br label %62

49:                                               ; preds = %6
  %50 = load i32, ptr @hf_zbee_zcl_press_meas_scaled_tolerance, align 4
  %51 = load i32, ptr %2, align 4
  %52 = tail call ptr @proto_tree_add_item(ptr noundef %0, i32 noundef %50, ptr noundef %1, i32 noundef %51, i32 noundef 2, i32 noundef -2147483648)
  %53 = load i32, ptr %2, align 4
  %54 = add i32 %53, 2
  store i32 %54, ptr %2, align 4
  br label %62

55:                                               ; preds = %6
  %56 = load i32, ptr @hf_zbee_zcl_press_meas_scale, align 4
  %57 = load i32, ptr %2, align 4
  %58 = tail call ptr @proto_tree_add_item(ptr noundef %0, i32 noundef %56, ptr noundef %1, i32 noundef %57, i32 noundef 1, i32 noundef -2147483648)
  %59 = load i32, ptr %2, align 4
  %60 = add i32 %59, 1
  store i32 %60, ptr %2, align 4
  br label %62

61:                                               ; preds = %6
  tail call void @dissect_zcl_attr_data(ptr noundef %1, ptr noundef %0, ptr noundef %2, i32 noundef %4, i1 noundef zeroext %5)
  br label %62

62:                                               ; preds = %61, %55, %49, %43, %37, %31, %25, %19, %13, %7
  ret void
}